target datalayout = "e-m:e-p270:32:32-p271:32:32-p272:64:64-i64:64-i128:128-f80:128-n8:16:32:64-S128"
target triple = "x86_64-pc-linux-gnu"

%"class.cvc5::internal::NodeTemplate" = type { ptr }
%"class.std::optional" = type { %"struct.std::_Optional_base" }
%"struct.std::_Optional_base" = type { %"struct.std::_Optional_payload" }
%"struct.std::_Optional_payload" = type { %"struct.std::_Optional_payload.base", [7 x i8] }
%"struct.std::_Optional_payload.base" = type { %"struct.std::_Optional_payload_base.base" }
%"struct.std::_Optional_payload_base.base" = type <{ %"union.std::_Optional_payload_base<cvc5::internal::theory::ff::parse::(anonymous namespace)::Spectrum>::_Storage", i8 }>
%"union.std::_Optional_payload_base<cvc5::internal::theory::ff::parse::(anonymous namespace)::Spectrum>::_Storage" = type { %"struct.cvc5::internal::theory::ff::parse::(anonymous namespace)::Spectrum" }
%"struct.cvc5::internal::theory::ff::parse::(anonymous namespace)::Spectrum" = type { %"class.cvc5::internal::NodeTemplate", i8, %"class.cvc5::internal::FiniteFieldValue", %"class.cvc5::internal::FiniteFieldValue" }
%"class.cvc5::internal::FiniteFieldValue" = type { %"struct.cvc5::internal::FfSize", %"class.cvc5::internal::Integer" }
%"struct.cvc5::internal::FfSize" = type { %"class.cvc5::internal::Integer" }
%"class.cvc5::internal::Integer" = type { %class.__gmp_expr }
%class.__gmp_expr = type { [1 x %struct.__mpz_struct] }
%struct.__mpz_struct = type { i32, i32, ptr }
%"struct.std::_Optional_payload_base" = type <{ %"union.std::_Optional_payload_base<cvc5::internal::theory::ff::parse::(anonymous namespace)::Spectrum>::_Storage", i8, [7 x i8] }>

; Function Attrs: mustprogress nounwind uwtable
define internal void @_ZNSt22_Optional_payload_baseIN4cvc58internal6theory2ff5parse12_GLOBAL__N_18SpectrumEE8_StorageIS6_Lb0EED2Ev(ptr noundef nonnull align 8 dereferenceable(80) %0) unnamed_addr #6 align 2 {
  %2 = alloca ptr, align 8
  store ptr %0, ptr %2, align 8, !tbaa !174
  ret void
}

; Function Attrs: mustprogress nounwind uwtable
define internal void @_ZNSt22_Optional_payload_baseIN4cvc58internal6theory2ff5parse12_GLOBAL__N_18SpectrumEE10_M_destroyEv(ptr noundef nonnull align 8 dereferenceable(81) %0) #6 align 2 {
  %2 = alloca ptr, align 8
  store ptr %0, ptr %2, align 8, !tbaa !163
  %3 = load ptr, ptr %2, align 8
  %4 = getelementptr inbounds nuw %"struct.std::_Optional_payload_base", ptr %3, i32 0, i32 1
  store i8 0, ptr %4, align 8, !tbaa !161
  %5 = getelementptr inbounds nuw %"struct.std::_Optional_payload_base", ptr %3, i32 0, i32 0
  call void @_ZN4cvc58internal6theory2ff5parse12_GLOBAL__N_18SpectrumD2Ev(ptr noundef nonnull align 8 dereferenceable(80) %5) #3
  ret void
}

; Function Attrs: inlinehint mustprogress uwtable
define available_externally void @__gmpz_neg(ptr noundef %0, ptr noundef %1) #8 {
  %3 = alloca ptr, align 8
  %4 = alloca ptr, align 8
  store ptr %0, ptr %3, align 8, !tbaa !77
  store ptr %1, ptr %4, align 8, !tbaa !77
  %5 = load ptr, ptr %3, align 8, !tbaa !77
  %6 = load ptr, ptr %4, align 8, !tbaa !77
  %7 = icmp ne ptr %5, %6
  br i1 %7, label %8, label %11

8:                                                ; preds = %2
  %9 = load ptr, ptr %3, align 8, !tbaa !77
  %10 = load ptr, ptr %4, align 8, !tbaa !77
  call void @__gmpz_set(ptr noundef %9, ptr noundef %10)
  br label %11

11:                                               ; preds = %8, %2
  %12 = load ptr, ptr %3, align 8, !tbaa !77
  %13 = getelementptr inbounds nuw %struct.__mpz_struct, ptr %12, i32 0, i32 1
  %14 = load i32, ptr %13, align 4, !tbaa !167
  %15 = sub nsw i32 0, %14
  %16 = load ptr, ptr %3, align 8, !tbaa !77
  %17 = getelementptr inbounds nuw %struct.__mpz_struct, ptr %16, i32 0, i32 1
  store i32 %15, ptr %17, align 4, !tbaa !167
  ret void
}

; Function Attrs: mustprogress uwtable
define linkonce_odr hidden void @_ZN10__gmp_exprIA1_12__mpz_structS1_E7init_uiEm(ptr noundef nonnull align 8 dereferenceable(16) %0, i64 noundef %1) #4 comdat align 2 {
  %3 = alloca ptr, align 8
  %4 = alloca i64, align 8
  store ptr %0, ptr %3, align 8, !tbaa !165
  store i64 %1, ptr %4, align 8, !tbaa !17
  %5 = load ptr, ptr %3, align 8
  %6 = load i64, ptr %4, align 8, !tbaa !17
  %7 = icmp eq i64 %6, 0
  %8 = call i1 @llvm.is.constant.i1(i1 %7)
  br i1 %8, label %9, label %15

9:                                                ; preds = %2
  %10 = load i64, ptr %4, align 8, !tbaa !17
  %11 = icmp eq i64 %10, 0
  br i1 %11, label %12, label %15

12:                                               ; preds = %9
  %13 = getelementptr inbounds nuw %class.__gmp_expr, ptr %5, i32 0, i32 0
  %14 = getelementptr inbounds [1 x %struct.__mpz_struct], ptr %13, i64 0, i64 0
  call void @__gmpz_init(ptr noundef %14) #3
  br label %19

15:                                               ; preds = %9, %2
  %16 = getelementptr inbounds nuw %class.__gmp_expr, ptr %5, i32 0, i32 0
  %17 = getelementptr inbounds [1 x %struct.__mpz_struct], ptr %16, i64 0, i64 0
  %18 = load i64, ptr %4, align 8, !tbaa !17
  call void @__gmpz_init_set_ui(ptr noundef %17, i64 noundef %18)
  br label %19

19:                                               ; preds = %15, %12
  ret void
}

; Function Attrs: mustprogress nounwind uwtable
define internal void @_ZNSt22_Optional_payload_baseIN4cvc58internal6theory2ff5parse12_GLOBAL__N_18SpectrumEED2Ev(ptr noundef nonnull align 8 dereferenceable(81) %0) unnamed_addr #6 align 2 {
  %2 = alloca ptr, align 8
  store ptr %0, ptr %2, align 8, !tbaa !163
  %3 = load ptr, ptr %2, align 8
  %4 = getelementptr inbounds nuw %"struct.std::_Optional_payload_base", ptr %3, i32 0, i32 0
  call void @_ZNSt22_Optional_payload_baseIN4cvc58internal6theory2ff5parse12_GLOBAL__N_18SpectrumEE8_StorageIS6_Lb0EED2Ev(ptr noundef nonnull align 8 dereferenceable(80) %4) #3
  ret void
}

; Function Attrs: mustprogress nounwind uwtable
define internal void @_ZNSt22_Optional_payload_baseIN4cvc58internal6theory2ff5parse12_GLOBAL__N_18SpectrumEE8_M_resetEv(ptr noundef nonnull align 8 dereferenceable(81) %0) #6 align 2 {
  %2 = alloca ptr, align 8
  store ptr %0, ptr %2, align 8, !tbaa !163
  %3 = load ptr, ptr %2, align 8
  %4 = getelementptr inbounds nuw %"struct.std::_Optional_payload_base", ptr %3, i32 0, i32 1
  %5 = load i8, ptr %4, align 8, !tbaa !161, !range !35, !noundef !36
  %6 = trunc i8 %5 to i1
  br i1 %6, label %7, label %8

7:                                                ; preds = %1
  call void @_ZNSt22_Optional_payload_baseIN4cvc58internal6theory2ff5parse12_GLOBAL__N_18SpectrumEE10_M_destroyEv(ptr noundef nonnull align 8 dereferenceable(81) %3) #3
  br label %8

8:                                                ; preds = %7, %1
  ret void
}

; Function Attrs: mustprogress uwtable
define linkonce_odr hidden void @_ZN10__gmp_exprIA1_12__mpz_structS1_E7init_siEl(ptr noundef nonnull align 8 dereferenceable(16) %0, i64 noundef %1) #4 comdat align 2 {
  %3 = alloca ptr, align 8
  %4 = alloca i64, align 8
  store ptr %0, ptr %3, align 8, !tbaa !165
  store i64 %1, ptr %4, align 8, !tbaa !17
  %5 = load ptr, ptr %3, align 8
  %6 = load i64, ptr %4, align 8, !tbaa !17
  %7 = icmp sge i64 %6, 0
  %8 = call i1 @llvm.is.constant.i1(i1 %7)
  br i1 %8, label %9, label %14

9:                                                ; preds = %2
  %10 = load i64, ptr %4, align 8, !tbaa !17
  %11 = icmp sge i64 %10, 0
  br i1 %11, label %12, label %14

12:                                               ; preds = %9
  %13 = load i64, ptr %4, align 8, !tbaa !17
  call void @_ZN10__gmp_exprIA1_12__mpz_structS1_E7init_uiEm(ptr noundef nonnull align 8 dereferenceable(16) %5, i64 noundef %13)
  br label %33

14:                                               ; preds = %9, %2
  %15 = load i64, ptr %4, align 8, !tbaa !17
  %16 = icmp sle i64 %15, 0
  %17 = call i1 @llvm.is.constant.i1(i1 %16)
  br i1 %17, label %18, label %28

18:                                               ; preds = %14
  %19 = load i64, ptr %4, align 8, !tbaa !17
  %20 = icmp sle i64 %19, 0
  br i1 %20, label %21, label %28

21:                                               ; preds = %18
  %22 = load i64, ptr %4, align 8, !tbaa !17
  %23 = sub i64 0, %22
  call void @_ZN10__gmp_exprIA1_12__mpz_structS1_E7init_uiEm(ptr noundef nonnull align 8 dereferenceable(16) %5, i64 noundef %23)
  %24 = getelementptr inbounds nuw %class.__gmp_expr, ptr %5, i32 0, i32 0
  %25 = getelementptr inbounds [1 x %struct.__mpz_struct], ptr %24, i64 0, i64 0
  %26 = getelementptr inbounds nuw %class.__gmp_expr, ptr %5, i32 0, i32 0
  %27 = getelementptr inbounds [1 x %struct.__mpz_struct], ptr %26, i64 0, i64 0
  call void @__gmpz_neg(ptr noundef %25, ptr noundef %27)
  br label %32

28:                                               ; preds = %18, %14
  %29 = getelementptr inbounds nuw %class.__gmp_expr, ptr %5, i32 0, i32 0
  %30 = getelementptr inbounds [1 x %struct.__mpz_struct], ptr %29, i64 0, i64 0
  %31 = load i64, ptr %4, align 8, !tbaa !17
  call void @__gmpz_init_set_si(ptr noundef %30, i64 noundef %31)
  br label %32

32:                                               ; preds = %28, %21
  br label %33

33:                                               ; preds = %32, %12
  ret void
}

; Function Attrs: mustprogress nounwind uwtable
define internal noundef nonnull align 8 dereferenceable(80) ptr @_ZNSt22_Optional_payload_baseIN4cvc58internal6theory2ff5parse12_GLOBAL__N_18SpectrumEE6_M_getEv(ptr noundef nonnull align 8 dereferenceable(81) %0) #6 align 2 {
  %2 = alloca ptr, align 8
  store ptr %0, ptr %2, align 8, !tbaa !163
  %3 = load ptr, ptr %2, align 8
  %4 = getelementptr inbounds nuw %"struct.std::_Optional_payload_base", ptr %3, i32 0, i32 0
  ret ptr %4
}

; Function Attrs: mustprogress nounwind uwtable
define internal void @_ZNSt17_Optional_payloadIN4cvc58internal6theory2ff5parse12_GLOBAL__N_18SpectrumELb0ELb0ELb0EED2Ev(ptr noundef nonnull align 8 dereferenceable(81) %0) unnamed_addr #6 align 2 {
  %2 = alloca ptr, align 8
  store ptr %0, ptr %2, align 8, !tbaa !170
  %3 = load ptr, ptr %2, align 8
  call void @_ZNSt22_Optional_payload_baseIN4cvc58internal6theory2ff5parse12_GLOBAL__N_18SpectrumEE8_M_resetEv(ptr noundef nonnull align 8 dereferenceable(81) %3) #3
  call void @_ZNSt22_Optional_payload_baseIN4cvc58internal6theory2ff5parse12_GLOBAL__N_18SpectrumEED2Ev(ptr noundef nonnull align 8 dereferenceable(81) %3) #3
  ret void
}

; Function Attrs: mustprogress nounwind uwtable
define linkonce_odr hidden void @_ZN10__gmp_exprIA1_12__mpz_structS1_ED2Ev(ptr noundef nonnull align 8 dereferenceable(16) %0) unnamed_addr #6 comdat align 2 personality ptr @__gxx_personality_v0 {
  %2 = alloca ptr, align 8
  store ptr %0, ptr %2, align 8, !tbaa !165
  %3 = load ptr, ptr %2, align 8
  %4 = getelementptr inbounds nuw %class.__gmp_expr, ptr %3, i32 0, i32 0
  %5 = getelementptr inbounds [1 x %struct.__mpz_struct], ptr %4, i64 0, i64 0
  invoke void @__gmpz_clear(ptr noundef %5)
          to label %6 unwind label %7

6:                                                ; preds = %1
  ret void

7:                                                ; preds = %1
  %8 = landingpad { ptr, i32 }
          catch ptr null
  %9 = extractvalue { ptr, i32 } %8, 0
  call void @__clang_call_terminate(ptr %9) #20
  unreachable
}

; Function Attrs: mustprogress uwtable
define linkonce_odr hidden void @_ZN10__gmp_exprIA1_12__mpz_structS1_EC2Ei(ptr noundef nonnull align 8 dereferenceable(16) %0, i32 noundef %1) unnamed_addr #4 comdat align 2 {
  %3 = alloca ptr, align 8
  %4 = alloca i32, align 4
  store ptr %0, ptr %3, align 8, !tbaa !165
  store i32 %1, ptr %4, align 4, !tbaa !26
  %5 = load ptr, ptr %3, align 8
  %6 = load i32, ptr %4, align 4, !tbaa !26
  %7 = sext i32 %6 to i64
  call void @_ZN10__gmp_exprIA1_12__mpz_structS1_E7init_siEl(ptr noundef nonnull align 8 dereferenceable(16) %5, i64 noundef %7)
  ret void
}

; Function Attrs: mustprogress nounwind uwtable
define internal noundef nonnull align 8 dereferenceable(80) ptr @_ZNSt19_Optional_base_implIN4cvc58internal6theory2ff5parse12_GLOBAL__N_18SpectrumESt14_Optional_baseIS6_Lb0ELb0EEE6_M_getEv(ptr noundef nonnull align 1 dereferenceable(1) %0) #6 align 2 {
  %2 = alloca ptr, align 8
  store ptr %0, ptr %2, align 8, !tbaa !159
  %3 = load ptr, ptr %2, align 8
  br label %4

4:                                                ; preds = %1
  br label %5

5:                                                ; preds = %4
  br label %6

6:                                                ; preds = %5
  %7 = getelementptr inbounds nuw %"struct.std::_Optional_base", ptr %3, i32 0, i32 0
  %8 = call noundef nonnull align 8 dereferenceable(80) ptr @_ZNSt22_Optional_payload_baseIN4cvc58internal6theory2ff5parse12_GLOBAL__N_18SpectrumEE6_M_getEv(ptr noundef nonnull align 8 dereferenceable(81) %7) #3
  ret ptr %8
}

; Function Attrs: mustprogress nounwind uwtable
define internal noundef zeroext i1 @_ZNKSt19_Optional_base_implIN4cvc58internal6theory2ff5parse12_GLOBAL__N_18SpectrumESt14_Optional_baseIS6_Lb0ELb0EEE13_M_is_engagedEv(ptr noundef nonnull align 1 dereferenceable(1) %0) #6 align 2 {
  %2 = alloca ptr, align 8
  store ptr %0, ptr %2, align 8, !tbaa !159
  %3 = load ptr, ptr %2, align 8
  %4 = getelementptr inbounds nuw %"struct.std::_Optional_base", ptr %3, i32 0, i32 0
  %5 = getelementptr inbounds nuw %"struct.std::_Optional_payload_base", ptr %4, i32 0, i32 1
  %6 = load i8, ptr %5, align 8, !tbaa !161, !range !35, !noundef !36
  %7 = trunc i8 %6 to i1
  ret i1 %7
}

; Function Attrs: inlinehint mustprogress nounwind uwtable
define internal void @_ZNSt14_Optional_baseIN4cvc58internal6theory2ff5parse12_GLOBAL__N_18SpectrumELb0ELb0EED2Ev(ptr noundef nonnull align 8 dereferenceable(88) %0) unnamed_addr #7 align 2 {
  %2 = alloca ptr, align 8
  store ptr %0, ptr %2, align 8, !tbaa !28
  %3 = load ptr, ptr %2, align 8
  %4 = getelementptr inbounds nuw %"struct.std::_Optional_base", ptr %3, i32 0, i32 0
  call void @_ZNSt17_Optional_payloadIN4cvc58internal6theory2ff5parse12_GLOBAL__N_18SpectrumELb0ELb0ELb0EED2Ev(ptr noundef nonnull align 8 dereferenceable(81) %4) #3
  ret void
}

; Function Attrs: mustprogress nounwind uwtable
define linkonce_odr hidden void @_ZN4cvc58internal7IntegerD2Ev(ptr noundef nonnull align 8 dereferenceable(16) %0) unnamed_addr #6 comdat align 2 {
  %2 = alloca ptr, align 8
  store ptr %0, ptr %2, align 8, !tbaa !24
  %3 = load ptr, ptr %2, align 8
  %4 = getelementptr inbounds nuw %"class.cvc5::internal::Integer", ptr %3, i32 0, i32 0
  call void @_ZN10__gmp_exprIA1_12__mpz_structS1_ED2Ev(ptr noundef nonnull align 8 dereferenceable(16) %4) #3
  ret void
}

; Function Attrs: mustprogress uwtable
define linkonce_odr hidden void @_ZN4cvc58internal7IntegerC2Ei(ptr noundef nonnull align 8 dereferenceable(16) %0, i32 noundef %1) unnamed_addr #4 comdat align 2 {
  %3 = alloca ptr, align 8
  %4 = alloca i32, align 4
  store ptr %0, ptr %3, align 8, !tbaa !24
  store i32 %1, ptr %4, align 4, !tbaa !26
  %5 = load ptr, ptr %3, align 8
  %6 = getelementptr inbounds nuw %"class.cvc5::internal::Integer", ptr %5, i32 0, i32 0
  %7 = load i32, ptr %4, align 4, !tbaa !26
  call void @_ZN10__gmp_exprIA1_12__mpz_structS1_EC2Ei(ptr noundef nonnull align 8 dereferenceable(16) %6, i32 noundef %7)
  ret void
}

; Function Attrs: mustprogress nounwind uwtable
define internal noundef ptr @_ZNSt8optionalIN4cvc58internal6theory2ff5parse12_GLOBAL__N_18SpectrumEEptEv(ptr noundef nonnull align 8 dereferenceable(88) %0) #6 align 2 {
  %2 = alloca ptr, align 8
  store ptr %0, ptr %2, align 8, !tbaa !22
  %3 = load ptr, ptr %2, align 8
  %4 = call noundef nonnull align 8 dereferenceable(80) ptr @_ZNSt19_Optional_base_implIN4cvc58internal6theory2ff5parse12_GLOBAL__N_18SpectrumESt14_Optional_baseIS6_Lb0ELb0EEE6_M_getEv(ptr noundef nonnull align 1 dereferenceable(1) %3) #3
  ret ptr %4
}

; Function Attrs: mustprogress nounwind uwtable
define internal noundef zeroext i1 @_ZNKSt8optionalIN4cvc58internal6theory2ff5parse12_GLOBAL__N_18SpectrumEE9has_valueEv(ptr noundef nonnull align 8 dereferenceable(88) %0) #6 align 2 {
  %2 = alloca ptr, align 8
  store ptr %0, ptr %2, align 8, !tbaa !22
  %3 = load ptr, ptr %2, align 8
  %4 = call noundef zeroext i1 @_ZNKSt19_Optional_base_implIN4cvc58internal6theory2ff5parse12_GLOBAL__N_18SpectrumESt14_Optional_baseIS6_Lb0ELb0EEE13_M_is_engagedEv(ptr noundef nonnull align 1 dereferenceable(1) %3) #3
  ret i1 %4
}

; Function Attrs: mustprogress uwtable
define hidden noundef zeroext i1 @_ZN4cvc58internal6theory2ff5parse13oneConstraintERKNS0_12NodeTemplateILb1EEE(ptr noundef nonnull align 8 dereferenceable(8) %0) #4 personality ptr @__gxx_personality_v0 {
  %2 = alloca i1, align 1
  %3 = alloca ptr, align 8
  %4 = alloca %"class.std::optional", align 8
  %5 = alloca ptr, align 8
  %6 = alloca i32, align 4
  %7 = alloca %"class.cvc5::internal::Integer", align 8
  %8 = alloca i1, align 1
  %9 = alloca i1, align 1
  store ptr %0, ptr %3, align 8, !tbaa !3
  call void @llvm.lifetime.start.p0(i64 88, ptr %4) #3
  %10 = load ptr, ptr %3, align 8, !tbaa !3
  call void @_ZN4cvc58internal6theory2ff5parse12_GLOBAL__N_18spectrumERKNS0_12NodeTemplateILb1EEEh(ptr dead_on_unwind writable sret(%"class.std::optional") align 8 %4, ptr noundef nonnull align 8 dereferenceable(8) %10, i8 noundef zeroext 5)
  %11 = call noundef zeroext i1 @_ZNKSt8optionalIN4cvc58internal6theory2ff5parse12_GLOBAL__N_18SpectrumEE9has_valueEv(ptr noundef nonnull align 8 dereferenceable(88) %4) #3
  store i1 false, ptr %8, align 1
  store i1 false, ptr %9, align 1
  br i1 %11, label %12, label %26

12:                                               ; preds = %1
  %13 = call noundef ptr @_ZNSt8optionalIN4cvc58internal6theory2ff5parse12_GLOBAL__N_18SpectrumEEptEv(ptr noundef nonnull align 8 dereferenceable(88) %4) #3
  %14 = getelementptr inbounds nuw %"struct.cvc5::internal::theory::ff::parse::(anonymous namespace)::Spectrum", ptr %13, i32 0, i32 1
  %15 = load i8, ptr %14, align 8, !tbaa !8
  %16 = zext i8 %15 to i32
  %17 = icmp eq i32 %16, 1
  br i1 %17, label %18, label %26

18:                                               ; preds = %12
  %19 = call noundef ptr @_ZNSt8optionalIN4cvc58internal6theory2ff5parse12_GLOBAL__N_18SpectrumEEptEv(ptr noundef nonnull align 8 dereferenceable(88) %4) #3
  %20 = getelementptr inbounds nuw %"struct.cvc5::internal::theory::ff::parse::(anonymous namespace)::Spectrum", ptr %19, i32 0, i32 3
  %21 = invoke noundef nonnull align 8 dereferenceable(16) ptr @_ZNK4cvc58internal16FiniteFieldValue8getValueEv(ptr noundef nonnull align 8 dereferenceable(32) %20)
          to label %22 unwind label %35

22:                                               ; preds = %18
  call void @llvm.lifetime.start.p0(i64 16, ptr %7) #3
  store i1 true, ptr %8, align 1
  invoke void @_ZN4cvc58internal7IntegerC2Ei(ptr noundef nonnull align 8 dereferenceable(16) %7, i32 noundef 0)
          to label %23 unwind label %39

23:                                               ; preds = %22
  store i1 true, ptr %9, align 1
  %24 = invoke noundef zeroext i1 @_ZNK4cvc58internal7IntegereqERKS1_(ptr noundef nonnull align 8 dereferenceable(16) %21, ptr noundef nonnull align 8 dereferenceable(16) %7)
          to label %25 unwind label %43

25:                                               ; preds = %23
  br label %26

26:                                               ; preds = %25, %12, %1
  %27 = phi i1 [ false, %12 ], [ false, %1 ], [ %24, %25 ]
  store i1 %27, ptr %2, align 1
  %28 = load i1, ptr %9, align 1
  br i1 %28, label %29, label %30

29:                                               ; preds = %26
  call void @_ZN4cvc58internal7IntegerD2Ev(ptr noundef nonnull align 8 dereferenceable(16) %7) #3
  br label %30

30:                                               ; preds = %29, %26
  %31 = load i1, ptr %8, align 1
  br i1 %31, label %32, label %33

32:                                               ; preds = %30
  call void @llvm.lifetime.end.p0(i64 16, ptr %7) #3
  br label %33

33:                                               ; preds = %32, %30
  call void @_ZNSt14_Optional_baseIN4cvc58internal6theory2ff5parse12_GLOBAL__N_18SpectrumELb0ELb0EED2Ev(ptr noundef nonnull align 8 dereferenceable(88) %4) #3
  call void @llvm.lifetime.end.p0(i64 88, ptr %4) #3
  %34 = load i1, ptr %2, align 1
  ret i1 %34

35:                                               ; preds = %18
  %36 = landingpad { ptr, i32 }
          cleanup
  %37 = extractvalue { ptr, i32 } %36, 0
  store ptr %37, ptr %5, align 8
  %38 = extractvalue { ptr, i32 } %36, 1
  store i32 %38, ptr %6, align 4
  br label %54

39:                                               ; preds = %22
  %40 = landingpad { ptr, i32 }
          cleanup
  %41 = extractvalue { ptr, i32 } %40, 0
  store ptr %41, ptr %5, align 8
  %42 = extractvalue { ptr, i32 } %40, 1
  store i32 %42, ptr %6, align 4
  br label %50

43:                                               ; preds = %23
  %44 = landingpad { ptr, i32 }
          cleanup
  %45 = extractvalue { ptr, i32 } %44, 0
  store ptr %45, ptr %5, align 8
  %46 = extractvalue { ptr, i32 } %44, 1
  store i32 %46, ptr %6, align 4
  %47 = load i1, ptr %9, align 1
  br i1 %47, label %48, label %49

48:                                               ; preds = %43
  call void @_ZN4cvc58internal7IntegerD2Ev(ptr noundef nonnull align 8 dereferenceable(16) %7) #3
  br label %49

49:                                               ; preds = %48, %43
  br label %50

50:                                               ; preds = %49, %39
  %51 = load i1, ptr %8, align 1
  br i1 %51, label %52, label %53

52:                                               ; preds = %50
  call void @llvm.lifetime.end.p0(i64 16, ptr %7) #3
  br label %53

53:                                               ; preds = %52, %50
  br label %54

54:                                               ; preds = %53, %35
  call void @_ZNSt14_Optional_baseIN4cvc58internal6theory2ff5parse12_GLOBAL__N_18SpectrumELb0ELb0EED2Ev(ptr noundef nonnull align 8 dereferenceable(88) %4) #3
  call void @llvm.lifetime.end.p0(i64 88, ptr %4) #3
  br label %55

55:                                               ; preds = %54
  %56 = load ptr, ptr %5, align 8
  %57 = load i32, ptr %6, align 4
  %58 = insertvalue { ptr, i32 } poison, ptr %56, 0
  %59 = insertvalue { ptr, i32 } %58, i32 %57, 1
  resume { ptr, i32 } %59
}